(lp0
S'poi'
p1
aS'bonus'
p2
aS'deferred_income'
p3
aS'exercised_stock_options'
p4
aS'expenses'
p5
aS'from_messages'
p6
aS'from_poi_to_this_person'
p7
aS'from_this_person_to_poi'
p8
aS'long_term_incentive'
p9
aS'other'
p10
aS'restricted_stock'
p11
aS'salary'
p12
aS'shared_receipt_with_poi'
p13
aS'to_messages'
p14
aS'total_payments'
p15
aS'total_stock_value'
p16
aS'poi_ratio'
p17
aS'fraction_to_poi'
p18
aS'fraction_from_poi'
p19
a.